target datalayout = "e-m:e-p270:32:32-p271:32:32-p272:64:64-i64:64-i128:128-f80:128-n8:16:32:64-S128"
target triple = "x86_64-unknown-linux-gnu"

%"struct.icu_75::FormattedStringBuilder::Field" = type { i8 }
%"class.icu_75::MaybeStackArray" = type <{ ptr, i32, i8, [40 x i8], [3 x i8] }>
%"class.icu_75::number::impl::MutablePatternModifier" = type { %"class.icu_75::number::impl::MicroPropsGenerator", %"class.icu_75::number::impl::Modifier", %"class.icu_75::number::impl::SymbolProvider", i8, ptr, %"struct.icu_75::FormattedStringBuilder::Field", i32, i8, i8, ptr, i32, %"class.icu_75::number::impl::CurrencySymbols", ptr, i32, i32, ptr, %"class.icu_75::UnicodeString" }
%"class.icu_75::number::impl::MicroPropsGenerator" = type { ptr }
%"class.icu_75::number::impl::Modifier" = type { ptr }
%"class.icu_75::number::impl::SymbolProvider" = type { ptr }
%"class.icu_75::number::impl::CurrencySymbols" = type { [8 x i8], %"class.icu_75::CurrencyUnit", %"class.icu_75::CharString", %"class.icu_75::UnicodeString", %"class.icu_75::UnicodeString" }
%"class.icu_75::CurrencyUnit" = type { %"class.icu_75::MeasureUnit.base", [4 x i16], [4 x i8] }
%"class.icu_75::MeasureUnit.base" = type <{ %"class.icu_75::UObject", ptr, i16, i8 }>
%"class.icu_75::UObject" = type { ptr }
%"class.icu_75::CharString" = type { %"class.icu_75::MaybeStackArray", i32, [4 x i8] }
%"class.icu_75::UnicodeString" = type { %"class.icu_75::Replaceable", %"union.icu_75::UnicodeString::StackBufferOrFields" }
%"class.icu_75::Replaceable" = type { %"class.icu_75::UObject" }
%"union.icu_75::UnicodeString::StackBufferOrFields" = type { %struct.anon.0, [32 x i8] }
%struct.anon.0 = type { i16, i32, i32, ptr }

; Function Attrs: mustprogress uwtable
define void @_ZN6icu_756number4impl22MutablePatternModifier12prepareAffixEb(ptr noundef nonnull align 8 dereferenceable(392) %this, i1 noundef zeroext %isPrefix) #1 align 2 {
entry:
  %this.addr = alloca ptr, align 8
  %isPrefix.addr = alloca i8, align 1
  store ptr %this, ptr %this.addr, align 8
  %frombool = zext i1 %isPrefix to i8
  store i8 %frombool, ptr %isPrefix.addr, align 1
  %this1 = load ptr, ptr %this.addr, align 8
  %fPatternInfo = getelementptr inbounds %"class.icu_75::number::impl::MutablePatternModifier", ptr %this1, i32 0, i32 4
  %0 = load ptr, ptr %fPatternInfo, align 8
  %1 = load i8, ptr %isPrefix.addr, align 1
  %tobool = trunc i8 %1 to i1
  %fSignDisplay = getelementptr inbounds %"class.icu_75::number::impl::MutablePatternModifier", ptr %this1, i32 0, i32 6
  %2 = load i32, ptr %fSignDisplay, align 4
  %fSignum = getelementptr inbounds %"class.icu_75::number::impl::MutablePatternModifier", ptr %this1, i32 0, i32 13
  %3 = load i32, ptr %fSignum, align 8
  %call = call noundef i32 @_ZN6icu_756number4impl18PatternStringUtils18resolveSignDisplayE18UNumberSignDisplayNS1_6SignumE(i32 noundef %2, i32 noundef %3)
  %fApproximately = getelementptr inbounds %"class.icu_75::number::impl::MutablePatternModifier", ptr %this1, i32 0, i32 8
  %4 = load i8, ptr %fApproximately, align 1
  %tobool2 = trunc i8 %4 to i1
  %fPlural = getelementptr inbounds %"class.icu_75::number::impl::MutablePatternModifier", ptr %this1, i32 0, i32 14
  %5 = load i32, ptr %fPlural, align 4
  %fPerMilleReplacesPercent = getelementptr inbounds %"class.icu_75::number::impl::MutablePatternModifier", ptr %this1, i32 0, i32 7
  %6 = load i8, ptr %fPerMilleReplacesPercent, align 8
  %tobool3 = trunc i8 %6 to i1
  %currentAffix = getelementptr inbounds %"class.icu_75::number::impl::MutablePatternModifier", ptr %this1, i32 0, i32 16
  call void @_ZN6icu_756number4impl18PatternStringUtils26patternInfoToStringBuilderERKNS1_20AffixPatternProviderEbNS1_15PatternSignTypeEbNS_14StandardPlural4FormEbbRNS_13UnicodeStringE(ptr noundef nonnull align 8 dereferenceable(8) %0, i1 noundef zeroext %tobool, i32 noundef %call, i1 noundef zeroext %tobool2, i32 noundef %5, i1 noundef zeroext %tobool3, i1 noundef zeroext false, ptr noundef nonnull align 8 dereferenceable(64) %currentAffix)
  ret void
}

; Function Attrs: mustprogress uwtable
define noundef i32 @_ZNK6icu_756number4impl22MutablePatternModifier15getPrefixLengthEv(ptr noundef nonnull align 8 dereferenceable(392) %this) unnamed_addr #1 align 2 {
entry:
  %this.addr = alloca ptr, align 8
  %nonConstThis = alloca ptr, align 8
  %status = alloca i32, align 4
  %result = alloca i32, align 4
  store ptr %this, ptr %this.addr, align 8
  %this1 = load ptr, ptr %this.addr, align 8
  store ptr %this1, ptr %nonConstThis, align 8
  store i32 0, ptr %status, align 4
  %0 = load ptr, ptr %nonConstThis, align 8
  call void @_ZN6icu_756number4impl22MutablePatternModifier12prepareAffixEb(ptr noundef nonnull align 8 dereferenceable(392) %0, i1 noundef zeroext true)
  %currentAffix = getelementptr inbounds %"class.icu_75::number::impl::MutablePatternModifier", ptr %this1, i32 0, i32 16
  %add.ptr = getelementptr inbounds i8, ptr %this1, i64 16
  %call = call noundef i32 @_ZN6icu_756number4impl10AffixUtils23unescapedCodePointCountERKNS_13UnicodeStringERKNS1_14SymbolProviderER10UErrorCode(ptr noundef nonnull align 8 dereferenceable(64) %currentAffix, ptr noundef nonnull align 8 dereferenceable(8) %add.ptr, ptr noundef nonnull align 4 dereferenceable(4) %status)
  store i32 %call, ptr %result, align 4
  %1 = load i32, ptr %result, align 4
  ret i32 %1
}